; Function Attrs: mustprogress uwtable
define hidden void @_ZN4cvc58internal6theory22TheoryInferenceManager8conflictENS0_12NodeTemplateILb0EEENS1_11InferenceIdE(ptr noundef nonnull align 8 dereferenceable(256) %this, ptr nocapture noundef readonly %conf, i32 noundef %id) local_unnamed_addr #3 align 2 personality ptr @__gxx_personality_v0 {
entry:
  %tconf = alloca %"class.cvc5::internal::TrustNode", align 8
  %agg.tmp = alloca %"class.cvc5::internal::NodeTemplate", align 8
  %agg.tmp2 = alloca %"class.cvc5::internal::TrustNode", align 8
  %0 = load ptr, ptr %conf, align 8
  store ptr %0, ptr %agg.tmp, align 8
  %bf.load.i.i = load i64, ptr %0, align 8
  %bf.lshr.i.i = lshr i64 %bf.load.i.i, 40
  %1 = trunc i64 %bf.lshr.i.i to i32
  %bf.cast.i.i = and i32 %1, 1048575
  %cmp.i.i = icmp ult i32 %bf.cast.i.i, 1048574
  br i1 %cmp.i.i, label %if.then.i.i, label %if.else.i.i

if.then.i.i:                                      ; preds = %entry
  %bf.value.i.i = add i64 %bf.load.i.i, 1099511627776
  %bf.shl.i.i = and i64 %bf.value.i.i, 1152920405095219200
  %bf.clear7.i.i = and i64 %bf.load.i.i, -1152920405095219201
  %bf.set.i.i = or disjoint i64 %bf.shl.i.i, %bf.clear7.i.i
  store i64 %bf.set.i.i, ptr %0, align 8
  br label %_ZN4cvc58internal12NodeTemplateILb1EEC2ERKNS1_ILb0EEE.exit

if.else.i.i:                                      ; preds = %entry
  %cmp12.i.i = icmp eq i32 %bf.cast.i.i, 1048574
  br i1 %cmp12.i.i, label %if.then13.i.i, label %_ZN4cvc58internal12NodeTemplateILb1EEC2ERKNS1_ILb0EEE.exit

if.then13.i.i:                                    ; preds = %if.else.i.i
  %bf.set23.i.i = or i64 %bf.load.i.i, 1152920405095219200
  store i64 %bf.set23.i.i, ptr %0, align 8
  tail call void @_ZN4cvc58internal4expr9NodeValue20markRefCountMaxedOutEv(ptr noundef nonnull align 8 dereferenceable(16) %0)
  br label %_ZN4cvc58internal12NodeTemplateILb1EEC2ERKNS1_ILb0EEE.exit

_ZN4cvc58internal12NodeTemplateILb1EEC2ERKNS1_ILb0EEE.exit: ; preds = %if.then.i.i, %if.else.i.i, %if.then13.i.i
  invoke void @_ZN4cvc58internal9TrustNode15mkTrustConflictENS0_12NodeTemplateILb1EEEPNS0_14ProofGeneratorE(ptr nonnull sret(%"class.cvc5::internal::TrustNode") align 8 %tconf, ptr noundef nonnull %agg.tmp, ptr noundef null)
          to label %invoke.cont unwind label %lpad

invoke.cont:                                      ; preds = %_ZN4cvc58internal12NodeTemplateILb1EEC2ERKNS1_ILb0EEE.exit
  %2 = load ptr, ptr %agg.tmp, align 8
  %bf.load.i.i3 = load i64, ptr %2, align 8
  %3 = and i64 %bf.load.i.i3, 1152920405095219200
  %cmp.not.i.i = icmp eq i64 %3, 1152920405095219200
  br i1 %cmp.not.i.i, label %_ZN4cvc58internal12NodeTemplateILb1EED2Ev.exit, label %if.then.i.i4

if.then.i.i4:                                     ; preds = %invoke.cont
  %bf.value.i.i5 = add i64 %bf.load.i.i3, 1152920405095219200
  %bf.shl.i.i6 = and i64 %bf.value.i.i5, 1152920405095219200
  %bf.clear7.i.i7 = and i64 %bf.load.i.i3, -1152920405095219201
  %bf.set.i.i8 = or disjoint i64 %bf.shl.i.i6, %bf.clear7.i.i7
  store i64 %bf.set.i.i8, ptr %2, align 8
  %cmp12.i.i9 = icmp eq i64 %bf.shl.i.i6, 0
  br i1 %cmp12.i.i9, label %if.then13.i.i10, label %_ZN4cvc58internal12NodeTemplateILb1EED2Ev.exit

if.then13.i.i10:                                  ; preds = %if.then.i.i4
  invoke void @_ZN4cvc58internal4expr9NodeValue15markForDeletionEv(ptr noundef nonnull align 8 dereferenceable(16) %2)
          to label %_ZN4cvc58internal12NodeTemplateILb1EED2Ev.exit unwind label %terminate.lpad.i

terminate.lpad.i:                                 ; preds = %if.then13.i.i10
  %4 = landingpad { ptr, i32 }
          catch ptr null
  %5 = extractvalue { ptr, i32 } %4, 0
  call void @__clang_call_terminate(ptr %5) #26
  unreachable

_ZN4cvc58internal12NodeTemplateILb1EED2Ev.exit:   ; preds = %invoke.cont, %if.then.i.i4, %if.then13.i.i10
  %6 = load i32, ptr %tconf, align 8
  store i32 %6, ptr %agg.tmp2, align 8
  %d_proven.i = getelementptr inbounds i8, ptr %agg.tmp2, i64 8
  %d_proven3.i = getelementptr inbounds i8, ptr %tconf, i64 8
  %7 = load ptr, ptr %d_proven3.i, align 8
  store ptr %7, ptr %d_proven.i, align 8
  %bf.load.i.i.i = load i64, ptr %7, align 8
  %bf.lshr.i.i.i = lshr i64 %bf.load.i.i.i, 40
  %8 = trunc i64 %bf.lshr.i.i.i to i32
  %bf.cast.i.i.i = and i32 %8, 1048575
  %cmp.i.i.i = icmp ult i32 %bf.cast.i.i.i, 1048574
  br i1 %cmp.i.i.i, label %if.then.i.i.i, label %if.else.i.i.i

if.then.i.i.i:                                    ; preds = %_ZN4cvc58internal12NodeTemplateILb1EED2Ev.exit
  %bf.value.i.i.i = add i64 %bf.load.i.i.i, 1099511627776
  %bf.shl.i.i.i = and i64 %bf.value.i.i.i, 1152920405095219200
  %bf.clear7.i.i.i = and i64 %bf.load.i.i.i, -1152920405095219201
  %bf.set.i.i.i = or disjoint i64 %bf.shl.i.i.i, %bf.clear7.i.i.i
  store i64 %bf.set.i.i.i, ptr %7, align 8
  br label %invoke.cont4

if.else.i.i.i:                                    ; preds = %_ZN4cvc58internal12NodeTemplateILb1EED2Ev.exit
  %cmp12.i.i.i = icmp eq i32 %bf.cast.i.i.i, 1048574
  br i1 %cmp12.i.i.i, label %if.then13.i.i.i, label %invoke.cont4

if.then13.i.i.i:                                  ; preds = %if.else.i.i.i
  %bf.set23.i.i.i = or i64 %bf.load.i.i.i, 1152920405095219200
  store i64 %bf.set23.i.i.i, ptr %7, align 8
  invoke void @_ZN4cvc58internal4expr9NodeValue20markRefCountMaxedOutEv(ptr noundef nonnull align 8 dereferenceable(16) %7)
          to label %invoke.cont4 unwind label %lpad3

invoke.cont4:                                     ; preds = %if.else.i.i.i, %if.then.i.i.i, %if.then13.i.i.i
  %d_gen.i = getelementptr inbounds i8, ptr %agg.tmp2, i64 16
  %d_gen4.i = getelementptr inbounds i8, ptr %tconf, i64 16
  %9 = load ptr, ptr %d_gen4.i, align 8
  store ptr %9, ptr %d_gen.i, align 8
  invoke void @_ZN4cvc58internal6theory22TheoryInferenceManager15trustedConflictENS0_9TrustNodeENS1_11InferenceIdE(ptr noundef nonnull align 8 dereferenceable(256) %this, ptr noundef nonnull %agg.tmp2, i32 noundef %id)
          to label %invoke.cont6 unwind label %lpad5

invoke.cont6:                                     ; preds = %invoke.cont4
  %10 = load ptr, ptr %d_proven.i, align 8
  %bf.load.i.i.i12 = load i64, ptr %10, align 8
  %11 = and i64 %bf.load.i.i.i12, 1152920405095219200
  %cmp.not.i.i.i = icmp eq i64 %11, 1152920405095219200
  br i1 %cmp.not.i.i.i, label %_ZN4cvc58internal9TrustNodeD2Ev.exit, label %if.then.i.i.i13

if.then.i.i.i13:                                  ; preds = %invoke.cont6
  %bf.value.i.i.i14 = add i64 %bf.load.i.i.i12, 1152920405095219200
  %bf.shl.i.i.i15 = and i64 %bf.value.i.i.i14, 1152920405095219200
  %bf.clear7.i.i.i16 = and i64 %bf.load.i.i.i12, -1152920405095219201
  %bf.set.i.i.i17 = or disjoint i64 %bf.shl.i.i.i15, %bf.clear7.i.i.i16
  store i64 %bf.set.i.i.i17, ptr %10, align 8
  %cmp12.i.i.i18 = icmp eq i64 %bf.shl.i.i.i15, 0
  br i1 %cmp12.i.i.i18, label %if.then13.i.i.i19, label %_ZN4cvc58internal9TrustNodeD2Ev.exit

if.then13.i.i.i19:                                ; preds = %if.then.i.i.i13
  invoke void @_ZN4cvc58internal4expr9NodeValue15markForDeletionEv(ptr noundef nonnull align 8 dereferenceable(16) %10)
          to label %_ZN4cvc58internal9TrustNodeD2Ev.exit unwind label %terminate.lpad.i.i

terminate.lpad.i.i:                               ; preds = %if.then13.i.i.i19
  %12 = landingpad { ptr, i32 }
          catch ptr null
  %13 = extractvalue { ptr, i32 } %12, 0
  call void @__clang_call_terminate(ptr %13) #26
  unreachable

_ZN4cvc58internal9TrustNodeD2Ev.exit:             ; preds = %invoke.cont6, %if.then.i.i.i13, %if.then13.i.i.i19
  %14 = load ptr, ptr %d_proven3.i, align 8
  %bf.load.i.i.i21 = load i64, ptr %14, align 8
  %15 = and i64 %bf.load.i.i.i21, 1152920405095219200
  %cmp.not.i.i.i22 = icmp eq i64 %15, 1152920405095219200
  br i1 %cmp.not.i.i.i22, label %_ZN4cvc58internal9TrustNodeD2Ev.exit31, label %if.then.i.i.i23

if.then.i.i.i23:                                  ; preds = %_ZN4cvc58internal9TrustNodeD2Ev.exit
  %bf.value.i.i.i24 = add i64 %bf.load.i.i.i21, 1152920405095219200
  %bf.shl.i.i.i25 = and i64 %bf.value.i.i.i24, 1152920405095219200
  %bf.clear7.i.i.i26 = and i64 %bf.load.i.i.i21, -1152920405095219201
  %bf.set.i.i.i27 = or disjoint i64 %bf.shl.i.i.i25, %bf.clear7.i.i.i26
  store i64 %bf.set.i.i.i27, ptr %14, align 8
  %cmp12.i.i.i28 = icmp eq i64 %bf.shl.i.i.i25, 0
  br i1 %cmp12.i.i.i28, label %if.then13.i.i.i29, label %_ZN4cvc58internal9TrustNodeD2Ev.exit31

if.then13.i.i.i29:                                ; preds = %if.then.i.i.i23
  invoke void @_ZN4cvc58internal4expr9NodeValue15markForDeletionEv(ptr noundef nonnull align 8 dereferenceable(16) %14)
          to label %_ZN4cvc58internal9TrustNodeD2Ev.exit31 unwind label %terminate.lpad.i.i30

terminate.lpad.i.i30:                             ; preds = %if.then13.i.i.i29
  %16 = landingpad { ptr, i32 }
          catch ptr null
  %17 = extractvalue { ptr, i32 } %16, 0
  call void @__clang_call_terminate(ptr %17) #26
  unreachable

_ZN4cvc58internal9TrustNodeD2Ev.exit31:           ; preds = %_ZN4cvc58internal9TrustNodeD2Ev.exit, %if.then.i.i.i23, %if.then13.i.i.i29
  ret void

lpad:                                             ; preds = %_ZN4cvc58internal12NodeTemplateILb1EEC2ERKNS1_ILb0EEE.exit
  %18 = landingpad { ptr, i32 }
          cleanup
  call void @_ZN4cvc58internal12NodeTemplateILb1EED2Ev(ptr noundef nonnull align 8 dereferenceable(8) %agg.tmp) #25
  br label %eh.resume

lpad3:                                            ; preds = %if.then13.i.i.i
  %19 = landingpad { ptr, i32 }
          cleanup
  br label %ehcleanup

lpad5:                                            ; preds = %invoke.cont4
  %20 = landingpad { ptr, i32 }
          cleanup
  call void @_ZN4cvc58internal9TrustNodeD2Ev(ptr noundef nonnull align 8 dereferenceable(24) %agg.tmp2) #25
  br label %ehcleanup

ehcleanup:                                        ; preds = %lpad5, %lpad3
  %.pn = phi { ptr, i32 } [ %20, %lpad5 ], [ %19, %lpad3 ]
  call void @_ZN4cvc58internal9TrustNodeD2Ev(ptr noundef nonnull align 8 dereferenceable(24) %tconf) #25
  br label %eh.resume

eh.resume:                                        ; preds = %ehcleanup, %lpad
  %.pn.pn = phi { ptr, i32 } [ %.pn, %ehcleanup ], [ %18, %lpad ]
  resume { ptr, i32 } %.pn.pn
}